; Function Attrs: mustprogress nofree norecurse nosync nounwind willreturn memory(read, inaccessiblemem: none) uwtable
define noundef i32 @_ZNK10open_spiel10backgammon15BackgammonState14NumOppCheckersEii(ptr nocapture noundef nonnull readonly align 8 dereferenceable(216) %0, i32 noundef %1, i32 noundef %2) local_unnamed_addr #9 align 2 {
  %4 = getelementptr inbounds nuw i8, ptr %0, i64 168
  %5 = sub nsw i32 1, %1
  %6 = sext i32 %5 to i64
  %7 = load ptr, ptr %4, align 8
  %8 = getelementptr inbounds %"class.std::vector.6", ptr %7, i64 %6
  %9 = sext i32 %2 to i64
  %10 = load ptr, ptr %8, align 8
  %11 = getelementptr inbounds i32, ptr %10, i64 %9
  %12 = load i32, ptr %11, align 4
  ret i32 %12
}